; Function Attrs: mustprogress uwtable
define noundef nonnull align 8 dereferenceable(56) ptr @_ZNK17RichParameterList2atEj(ptr nocapture noundef nonnull readonly align 8 dereferenceable(24) %0, i32 noundef %1) local_unnamed_addr #9 align 2 personality ptr @__gxx_personality_v0 {
  %3 = alloca %class.QString, align 8
  %4 = getelementptr inbounds i8, ptr %0, i64 16
  %5 = load i64, ptr %4, align 8
  %6 = trunc i64 %5 to i32
  %.not = icmp ugt i32 %6, %1
  br i1 %.not, label %17, label %7

7:                                                ; preds = %2
  %8 = tail call ptr @__cxa_allocate_exception(i64 24) #22
  %9 = invoke noundef ptr @_ZN7QString16fromAscii_helperEPKci(ptr noundef nonnull @.str.8, i32 noundef 43)
          to label %10 unwind label %.thread

10:                                               ; preds = %7
  store ptr %9, ptr %3, align 8
  invoke void @_ZN11MLExceptionC2ERK7QString(ptr noundef nonnull align 8 dereferenceable(24) %8, ptr noundef nonnull align 8 dereferenceable(8) %3)
          to label %12 unwind label %.thread13

.thread13:                                        ; preds = %10
  %11 = landingpad { ptr, i32 }
          cleanup
  call void @_ZN7QStringD2Ev(ptr noundef nonnull align 8 dereferenceable(8) %3) #22
  br label %16

12:                                               ; preds = %10
  invoke void @__cxa_throw(ptr nonnull %8, ptr nonnull @_ZTI11MLException, ptr nonnull @_ZN11MLExceptionD2Ev) #26
          to label %27 unwind label %14

.thread:                                          ; preds = %7
  %13 = landingpad { ptr, i32 }
          cleanup
  br label %16

14:                                               ; preds = %12
  %15 = landingpad { ptr, i32 }
          cleanup
  call void @_ZN7QStringD2Ev(ptr noundef nonnull align 8 dereferenceable(8) %3) #22
  br label %26

16:                                               ; preds = %.thread13, %.thread
  %.pn12 = phi { ptr, i32 } [ %13, %.thread ], [ %11, %.thread13 ]
  call void @__cxa_free_exception(ptr %8) #22
  br label %26

17:                                               ; preds = %2
  %18 = load ptr, ptr %0, align 8
  %.not.i = icmp eq i32 %1, 0
  br i1 %.not.i, label %_ZSt7advanceISt20_List_const_iteratorIP13RichParameterEjEvRT_T0_.exit, label %.preheader.i.i

.preheader.i.i:                                   ; preds = %17
  %19 = zext i32 %1 to i64
  br label %20

20:                                               ; preds = %20, %.preheader.i.i
  %.012.i.i = phi i64 [ %19, %.preheader.i.i ], [ %22, %20 ]
  %21 = phi ptr [ %18, %.preheader.i.i ], [ %23, %20 ]
  %22 = add nsw i64 %.012.i.i, -1
  %23 = load ptr, ptr %21, align 8
  %.not6.i.i = icmp eq i64 %22, 0
  br i1 %.not6.i.i, label %_ZSt7advanceISt20_List_const_iteratorIP13RichParameterEjEvRT_T0_.exit, label %20, !llvm.loop !29

_ZSt7advanceISt20_List_const_iteratorIP13RichParameterEjEvRT_T0_.exit: ; preds = %20, %17
  %.sroa.0.0 = phi ptr [ %18, %17 ], [ %23, %20 ]
  %24 = getelementptr inbounds i8, ptr %.sroa.0.0, i64 16
  %25 = load ptr, ptr %24, align 8
  ret ptr %25

26:                                               ; preds = %14, %16
  %.pn11 = phi { ptr, i32 } [ %15, %14 ], [ %.pn12, %16 ]
  resume { ptr, i32 } %.pn11

27:                                               ; preds = %12
  unreachable
}